target datalayout = "e-m:e-p270:32:32-p271:32:32-p272:64:64-i64:64-i128:128-f80:128-n8:16:32:64-S128"
target triple = "x86_64-pc-linux-gnu"

%struct.AVChannelLayout = type { i32, i32, %union.anon.1, ptr }
%union.anon.1 = type { i64 }
%struct.AVCodecContext = type { ptr, i32, i32, ptr, i32, i32, ptr, ptr, ptr, i64, i32, i32, ptr, i32, %struct.AVRational, %struct.AVRational, %struct.AVRational, i32, i32, i32, i32, i32, %struct.AVRational, i32, i32, i32, i32, i32, i32, i32, i32, i32, i32, i32, ptr, ptr, i32, float, float, float, float, float, float, float, float, float, i32, i32, i32, i32, i32, i32, i32, i32, i32, i32, i32, i32, ptr, ptr, ptr, i32, i32, i32, i32, i32, i32, i32, i32, i32, i32, %struct.AVChannelLayout, i32, i32, i32, i32, i32, i32, i32, i32, ptr, i32, i32, i32, float, float, i32, i32, i32, i32, i32, ptr, i64, i64, float, float, i32, i32, ptr, ptr, i32, i32, i32, i32, i32, ptr, ptr, ptr, ptr, i32, i32, [8 x i64], i32, i32, i32, i32, i32, i32, i32, ptr, ptr, i32, i32, i32, i32, i32, i32, i32, i32, i32, i32, ptr, ptr, i32, i32, ptr, ptr, ptr, ptr, i32, i32, i64, i32, i32, i64, ptr, i64, ptr, i32, ptr, i32 }
%struct.AVRational = type { i32, i32 }
%struct.G722Context = type { ptr, i32, [1024 x i16], i32, [2 x %struct.G722Band], [2 x ptr], [2 x ptr], [2 x ptr], %struct.G722DSPContext }
%struct.G722Band = type { i16, i32, [2 x i8], i16, [2 x i16], [6 x i32], [6 x i16], i16, i16 }
%struct.G722DSPContext = type { ptr }

; Function Attrs: cold nounwind optsize uwtable
define internal i32 @g722_decode_init(ptr noundef %0) #0 {
  %2 = alloca ptr, align 8
  %3 = alloca ptr, align 8
  %4 = alloca %struct.AVChannelLayout, align 8
  store ptr %0, ptr %2, align 8, !tbaa !4
  call void @llvm.lifetime.start.p0(i64 8, ptr %3) #7
  %5 = load ptr, ptr %2, align 8, !tbaa !4
  %6 = getelementptr inbounds nuw %struct.AVCodecContext, ptr %5, i32 0, i32 6
  %7 = load ptr, ptr %6, align 8, !tbaa !9
  store ptr %7, ptr %3, align 8, !tbaa !29
  %8 = load ptr, ptr %2, align 8, !tbaa !4
  %9 = getelementptr inbounds nuw %struct.AVCodecContext, ptr %8, i32 0, i32 71
  call void @av_channel_layout_uninit(ptr noundef %9)
  %10 = load ptr, ptr %2, align 8, !tbaa !4
  %11 = getelementptr inbounds nuw %struct.AVCodecContext, ptr %10, i32 0, i32 71
  %12 = getelementptr inbounds nuw %struct.AVChannelLayout, ptr %4, i32 0, i32 0
  store i32 1, ptr %12, align 8, !tbaa !31
  %13 = getelementptr inbounds nuw %struct.AVChannelLayout, ptr %4, i32 0, i32 1
  store i32 1, ptr %13, align 4, !tbaa !32
  %14 = getelementptr inbounds nuw %struct.AVChannelLayout, ptr %4, i32 0, i32 2
  store i64 4, ptr %14, align 8, !tbaa !33
  %15 = getelementptr inbounds nuw %struct.AVChannelLayout, ptr %4, i32 0, i32 3
  store ptr null, ptr %15, align 8, !tbaa !34
  call void @llvm.memcpy.p0.p0.i64(ptr align 8 %11, ptr align 8 %4, i64 24, i1 false), !tbaa.struct !35
  %16 = load ptr, ptr %2, align 8, !tbaa !4
  %17 = getelementptr inbounds nuw %struct.AVCodecContext, ptr %16, i32 0, i32 70
  store i32 1, ptr %17, align 4, !tbaa !38
  %18 = load ptr, ptr %3, align 8, !tbaa !29
  %19 = getelementptr inbounds nuw %struct.G722Context, ptr %18, i32 0, i32 4
  %20 = getelementptr inbounds [2 x %struct.G722Band], ptr %19, i64 0, i64 0
  %21 = getelementptr inbounds nuw %struct.G722Band, ptr %20, i32 0, i32 8
  store i16 8, ptr %21, align 2, !tbaa !39
  %22 = load ptr, ptr %3, align 8, !tbaa !29
  %23 = getelementptr inbounds nuw %struct.G722Context, ptr %22, i32 0, i32 4
  %24 = getelementptr inbounds [2 x %struct.G722Band], ptr %23, i64 0, i64 1
  %25 = getelementptr inbounds nuw %struct.G722Band, ptr %24, i32 0, i32 8
  store i16 2, ptr %25, align 2, !tbaa !39
  %26 = load ptr, ptr %3, align 8, !tbaa !29
  %27 = getelementptr inbounds nuw %struct.G722Context, ptr %26, i32 0, i32 3
  store i32 22, ptr %27, align 4, !tbaa !42
  %28 = load ptr, ptr %3, align 8, !tbaa !29
  %29 = getelementptr inbounds nuw %struct.G722Context, ptr %28, i32 0, i32 8
  call void @ff_g722dsp_init(ptr noundef %29)
  call void @llvm.lifetime.end.p0(i64 8, ptr %3) #7
  ret i32 0
}