; Function Attrs: cold nounwind optsize uwtable
define internal noundef i32 @g722_decode_init(ptr noundef %0) #0 {
  %2 = getelementptr inbounds nuw i8, ptr %0, i64 32
  %3 = load ptr, ptr %2, align 8, !tbaa !4
  %4 = getelementptr inbounds nuw i8, ptr %0, i64 352
  tail call void @av_channel_layout_uninit(ptr noundef nonnull %4) #6
  store i32 1, ptr %4, align 8, !tbaa !27
  %.sroa.2.0..sroa_idx = getelementptr inbounds nuw i8, ptr %0, i64 356
  store i32 1, ptr %.sroa.2.0..sroa_idx, align 4, !tbaa !27
  %.sroa.3.0..sroa_idx = getelementptr inbounds nuw i8, ptr %0, i64 360
  store i64 4, ptr %.sroa.3.0..sroa_idx, align 8, !tbaa !28
  %.sroa.4.0..sroa_idx = getelementptr inbounds nuw i8, ptr %0, i64 368
  store ptr null, ptr %.sroa.4.0..sroa_idx, align 8, !tbaa !29
  %5 = getelementptr inbounds nuw i8, ptr %0, i64 348
  store i32 1, ptr %5, align 4, !tbaa !30
  %6 = getelementptr inbounds nuw i8, ptr %3, i64 2118
  store i16 8, ptr %6, align 2, !tbaa !31
  %7 = getelementptr inbounds nuw i8, ptr %3, i64 2174
  store i16 2, ptr %7, align 2, !tbaa !31
  %8 = getelementptr inbounds nuw i8, ptr %3, i64 2060
  store i32 22, ptr %8, align 4, !tbaa !34
  %9 = getelementptr inbounds nuw i8, ptr %3, i64 2224
  tail call void @ff_g722dsp_init(ptr noundef nonnull %9) #6
  ret i32 0
}